; Function Attrs: mustprogress uwtable
define hidden void @_ZNK3sls12bv_valuation12inf_feasibleERNS_5bvectE(ptr noundef nonnull readonly align 8 captures(none) dereferenceable(184) %0, ptr noundef nonnull readonly align 8 captures(none) dereferenceable(20) %1) local_unnamed_addr #3 align 2 {
  %3 = getelementptr inbounds nuw i8, ptr %0, i64 156
  %4 = load i32, ptr %3, align 4, !tbaa !68
  %.not13.i = icmp eq i32 %4, 0
  br i1 %.not13.i, label %_ZNK3sls12bv_valuation10diff_indexERKNS_5bvectE.exit.thread, label %.lr.ph.i

.lr.ph.i:                                         ; preds = %2
  %5 = getelementptr inbounds nuw i8, ptr %0, i64 72
  %6 = getelementptr inbounds nuw i8, ptr %0, i64 96
  %7 = zext i32 %4 to i64
  br label %8

8:                                                ; preds = %28, %.lr.ph.i
  %indvars.iv.i = phi i64 [ %7, %.lr.ph.i ], [ %indvars.iv.next.i, %28 ]
  %.014.i = phi i32 [ 0, %.lr.ph.i ], [ %.1.i, %28 ]
  %indvars.iv.next.i = add nsw i64 %indvars.iv.i, -1
  %indvars.i = trunc i64 %indvars.iv.next.i to i32
  %9 = load ptr, ptr %5, align 8, !tbaa !14
  %10 = and i64 %indvars.iv.next.i, 4294967295
  %11 = getelementptr inbounds nuw i32, ptr %9, i64 %10
  %12 = load i32, ptr %11, align 4, !tbaa !15
  %13 = load ptr, ptr %6, align 8, !tbaa !14
  %14 = getelementptr inbounds nuw i32, ptr %13, i64 %10
  %15 = load i32, ptr %14, align 4, !tbaa !15
  %16 = load ptr, ptr %1, align 8, !tbaa !14
  %17 = getelementptr inbounds nuw i32, ptr %16, i64 %10
  %18 = load i32, ptr %17, align 4, !tbaa !15
  %19 = xor i32 %18, %15
  %20 = and i32 %19, %12
  %21 = icmp ne i32 %20, 0
  %22 = icmp eq i32 %.014.i, 0
  %or.cond.i = select i1 %21, i1 %22, i1 false
  br i1 %or.cond.i, label %23, label %28

23:                                               ; preds = %8
  %24 = shl i32 %indvars.i, 5
  %25 = or disjoint i32 %24, 1
  %26 = tail call noundef i32 @_Z4log2j(i32 noundef %20)
  %27 = add i32 %25, %26
  br label %28

28:                                               ; preds = %23, %8
  %.1.i = phi i32 [ %27, %23 ], [ %.014.i, %8 ]
  %.not.i = icmp eq i32 %indvars.i, 0
  br i1 %.not.i, label %_ZNK3sls12bv_valuation10diff_indexERKNS_5bvectE.exit, label %8, !llvm.loop !75

_ZNK3sls12bv_valuation10diff_indexERKNS_5bvectE.exit: ; preds = %28
  %29 = icmp eq i32 %.1.i, 0
  br i1 %29, label %_ZNK3sls12bv_valuation10diff_indexERKNS_5bvectE.exit.thread, label %30

30:                                               ; preds = %_ZNK3sls12bv_valuation10diff_indexERKNS_5bvectE.exit
  %31 = load ptr, ptr %5, align 8, !tbaa !14
  %32 = load ptr, ptr %6, align 8
  %33 = load ptr, ptr %1, align 8
  br label %46

34:                                               ; preds = %69
  %35 = add i32 %.1.i, -1
  %36 = lshr i32 %35, 5
  %37 = load ptr, ptr %1, align 8, !tbaa !14
  %38 = zext nneg i32 %36 to i64
  %39 = getelementptr inbounds nuw i32, ptr %37, i64 %38
  %40 = load i32, ptr %39, align 4, !tbaa !15
  %41 = and i32 %35, 31
  %42 = shl nuw i32 1, %41
  %43 = and i32 %40, %42
  %.not37 = icmp eq i32 %43, 0
  br i1 %.not37, label %.preheader, label %_ZNK3sls12bv_valuation10diff_indexERKNS_5bvectE.exit.thread

.preheader:                                       ; preds = %34
  %44 = getelementptr inbounds nuw i8, ptr %0, i64 152
  %45 = load i32, ptr %44, align 8, !tbaa !67
  %.not3447 = icmp ult i32 %.1.i, %45
  br i1 %.not3447, label %.lr.ph, label %.critedge.preheader

46:                                               ; preds = %30, %69
  %.03045 = phi i32 [ 0, %30 ], [ %70, %69 ]
  %47 = lshr i32 %.03045, 5
  %48 = zext nneg i32 %47 to i64
  %49 = getelementptr inbounds nuw i32, ptr %31, i64 %48
  %50 = load i32, ptr %49, align 4, !tbaa !15
  %51 = and i32 %.03045, 31
  %52 = shl nuw i32 1, %51
  %53 = and i32 %50, %52
  %.not36 = icmp eq i32 %53, 0
  br i1 %.not36, label %54, label %59

54:                                               ; preds = %46
  %55 = getelementptr inbounds nuw i32, ptr %33, i64 %48
  %56 = load i32, ptr %55, align 4, !tbaa !15
  %57 = xor i32 %52, -1
  %58 = and i32 %56, %57
  store i32 %58, ptr %55, align 4, !tbaa !15
  br label %69

59:                                               ; preds = %46
  %60 = getelementptr inbounds nuw i32, ptr %32, i64 %48
  %61 = load i32, ptr %60, align 4, !tbaa !15
  %62 = and i32 %61, %52
  %63 = icmp ne i32 %62, 0
  %.neg.i = sext i1 %63 to i32
  %64 = getelementptr inbounds nuw i32, ptr %33, i64 %48
  %65 = load i32, ptr %64, align 4, !tbaa !15
  %66 = xor i32 %65, %.neg.i
  %67 = and i32 %66, %52
  %68 = xor i32 %67, %65
  store i32 %68, ptr %64, align 4, !tbaa !15
  br label %69

69:                                               ; preds = %54, %59
  %70 = add i32 %.03045, 1
  %exitcond.not = icmp eq i32 %70, %.1.i
  br i1 %exitcond.not, label %34, label %46, !llvm.loop !80

.critedge.preheader:                              ; preds = %85, %.preheader
  %.not = icmp eq i32 %45, 0
  br i1 %.not, label %_ZNK3sls12bv_valuation10diff_indexERKNS_5bvectE.exit.thread, label %.lr.ph50

.lr.ph:                                           ; preds = %.preheader, %85
  %.02948 = phi i32 [ %86, %85 ], [ %.1.i, %.preheader ]
  %71 = lshr i32 %.02948, 5
  %72 = zext nneg i32 %71 to i64
  %73 = getelementptr inbounds nuw i32, ptr %31, i64 %72
  %74 = load i32, ptr %73, align 4, !tbaa !15
  %75 = and i32 %.02948, 31
  %76 = shl nuw i32 1, %75
  %77 = and i32 %74, %76
  %.not39 = icmp eq i32 %77, 0
  br i1 %.not39, label %78, label %85

78:                                               ; preds = %.lr.ph
  %79 = getelementptr inbounds nuw i32, ptr %37, i64 %72
  %80 = load i32, ptr %79, align 4, !tbaa !15
  %81 = and i32 %80, %76
  %.not40 = icmp eq i32 %81, 0
  br i1 %.not40, label %82, label %85

82:                                               ; preds = %78
  %83 = getelementptr inbounds nuw i32, ptr %37, i64 %72
  %84 = or i32 %80, %76
  store i32 %84, ptr %83, align 4, !tbaa !15
  br label %_ZNK3sls12bv_valuation10diff_indexERKNS_5bvectE.exit.thread

85:                                               ; preds = %.lr.ph, %78
  %86 = add i32 %.02948, 1
  %exitcond56.not = icmp eq i32 %86, %45
  br i1 %exitcond56.not, label %.critedge.preheader, label %.lr.ph, !llvm.loop !81

.lr.ph50:                                         ; preds = %.critedge.preheader, %.critedge
  %87 = phi i32 [ %100, %.critedge ], [ %45, %.critedge.preheader ]
  %.049 = phi i32 [ %101, %.critedge ], [ 0, %.critedge.preheader ]
  %88 = lshr i32 %.049, 5
  %89 = zext nneg i32 %88 to i64
  %90 = getelementptr inbounds nuw i32, ptr %31, i64 %89
  %91 = load i32, ptr %90, align 4, !tbaa !15
  %92 = and i32 %.049, 31
  %93 = shl nuw i32 1, %92
  %94 = and i32 %91, %93
  %.not38 = icmp eq i32 %94, 0
  br i1 %.not38, label %95, label %.critedge

95:                                               ; preds = %.lr.ph50
  %96 = getelementptr inbounds nuw i32, ptr %37, i64 %89
  %97 = load i32, ptr %96, align 4, !tbaa !15
  %98 = xor i32 %93, -1
  %99 = and i32 %97, %98
  store i32 %99, ptr %96, align 4, !tbaa !15
  %.pre = load i32, ptr %44, align 8, !tbaa !67
  br label %.critedge

.critedge:                                        ; preds = %.lr.ph50, %95
  %100 = phi i32 [ %87, %.lr.ph50 ], [ %.pre, %95 ]
  %101 = add nuw i32 %.049, 1
  %102 = icmp ult i32 %101, %100
  br i1 %102, label %.lr.ph50, label %_ZNK3sls12bv_valuation10diff_indexERKNS_5bvectE.exit.thread, !llvm.loop !82

_ZNK3sls12bv_valuation10diff_indexERKNS_5bvectE.exit.thread: ; preds = %.critedge, %.critedge.preheader, %2, %82, %34, %_ZNK3sls12bv_valuation10diff_indexERKNS_5bvectE.exit
  ret void
}